target datalayout = "e-m:e-p270:32:32-p271:32:32-p272:64:64-i64:64-i128:128-f80:128-n8:16:32:64-S128"
target triple = "x86_64-pc-linux-gnu"

%struct.QTailQLink = type { ptr, ptr }
%struct.DriveInfo = type { i32, i32, i32, i32, i8, i32, ptr, %union.anon.10 }
%union.anon.10 = type { %struct.QTailQLink }

@.str = private unnamed_addr constant [22 x i8] c"qemu_in_main_thread()\00", align 1
@.str.1 = private unnamed_addr constant [19 x i8] c"../qemu/blockdev.c\00", align 1
@__PRETTY_FUNCTION__.drive_get_max_bus = private unnamed_addr constant [42 x i8] c"int drive_get_max_bus(BlockInterfaceType)\00", align 1

; Function Attrs: nounwind sspstrong uwtable
define dso_local i32 @drive_get_max_bus(i32 noundef %0) #0 {
  %2 = alloca i32, align 4
  %3 = alloca i32, align 4
  %4 = alloca ptr, align 8
  %5 = alloca ptr, align 8
  store i32 %0, ptr %2, align 4
  call void @llvm.lifetime.start.p0(i64 4, ptr %3) #16
  store i32 0, ptr %3, align 4, !annotation !4
  call void @llvm.lifetime.start.p0(i64 8, ptr %4) #16
  store ptr null, ptr %4, align 8, !annotation !4
  call void @llvm.lifetime.start.p0(i64 8, ptr %5) #16
  store ptr null, ptr %5, align 8, !annotation !4
  br label %6

6:                                                ; preds = %1
  %7 = call zeroext i1 @qemu_in_main_thread()
  br i1 %7, label %8, label %9

8:                                                ; preds = %6
  br label %10

9:                                                ; preds = %6
  call void @__assert_fail(ptr noundef @.str, ptr noundef @.str.1, i32 noundef 297, ptr noundef @__PRETTY_FUNCTION__.drive_get_max_bus) #15
  unreachable

10:                                               ; preds = %8
  br label %11

11:                                               ; preds = %10
  br label %12

12:                                               ; preds = %11
  store i32 -1, ptr %3, align 4
  %13 = call ptr @blk_next(ptr noundef null)
  store ptr %13, ptr %4, align 8
  br label %14

14:                                               ; preds = %39, %12
  %15 = load ptr, ptr %4, align 8
  %16 = icmp ne ptr %15, null
  br i1 %16, label %17, label %42

17:                                               ; preds = %14
  %18 = load ptr, ptr %4, align 8
  %19 = call ptr @blk_legacy_dinfo(ptr noundef %18)
  store ptr %19, ptr %5, align 8
  %20 = load ptr, ptr %5, align 8
  %21 = icmp ne ptr %20, null
  br i1 %21, label %22, label %38

22:                                               ; preds = %17
  %23 = load ptr, ptr %5, align 8
  %24 = getelementptr inbounds nuw %struct.DriveInfo, ptr %23, i32 0, i32 0
  %25 = load i32, ptr %24, align 8
  %26 = load i32, ptr %2, align 4
  %27 = icmp eq i32 %25, %26
  br i1 %27, label %28, label %38

28:                                               ; preds = %22
  %29 = load ptr, ptr %5, align 8
  %30 = getelementptr inbounds nuw %struct.DriveInfo, ptr %29, i32 0, i32 1
  %31 = load i32, ptr %30, align 4
  %32 = load i32, ptr %3, align 4
  %33 = icmp sgt i32 %31, %32
  br i1 %33, label %34, label %38

34:                                               ; preds = %28
  %35 = load ptr, ptr %5, align 8
  %36 = getelementptr inbounds nuw %struct.DriveInfo, ptr %35, i32 0, i32 1
  %37 = load i32, ptr %36, align 4
  store i32 %37, ptr %3, align 4
  br label %38

38:                                               ; preds = %34, %28, %22, %17
  br label %39

39:                                               ; preds = %38
  %40 = load ptr, ptr %4, align 8
  %41 = call ptr @blk_next(ptr noundef %40)
  store ptr %41, ptr %4, align 8
  br label %14, !llvm.loop !14

42:                                               ; preds = %14
  %43 = load i32, ptr %3, align 4
  call void @llvm.lifetime.end.p0(i64 8, ptr %5) #16
  call void @llvm.lifetime.end.p0(i64 8, ptr %4) #16
  call void @llvm.lifetime.end.p0(i64 4, ptr %3) #16
  ret i32 %43
}