; Function Attrs: nounwind sspstrong uwtable
define dso_local range(i32 -1, -2147483648) i32 @drive_get_max_bus(i32 noundef %0) local_unnamed_addr #0 {
  %2 = tail call zeroext i1 @qemu_in_main_thread() #14
  br i1 %2, label %4, label %3

3:                                                ; preds = %1
  tail call void @__assert_fail(ptr noundef nonnull @.str, ptr noundef nonnull @.str.1, i32 noundef 297, ptr noundef nonnull @__PRETTY_FUNCTION__.drive_get_max_bus) #15
  unreachable

4:                                                ; preds = %1
  %5 = tail call ptr @blk_next(ptr noundef null) #14
  %.not13 = icmp eq ptr %5, null
  br i1 %.not13, label %._crit_edge, label %.lr.ph

.lr.ph:                                           ; preds = %4, %13
  %.015 = phi ptr [ %14, %13 ], [ %5, %4 ]
  %.0914 = phi i32 [ %.1, %13 ], [ -1, %4 ]
  %6 = tail call ptr @blk_legacy_dinfo(ptr noundef nonnull %.015) #14
  %.not12 = icmp eq ptr %6, null
  br i1 %.not12, label %13, label %7

7:                                                ; preds = %.lr.ph
  %8 = load i32, ptr %6, align 8
  %9 = icmp eq i32 %8, %0
  br i1 %9, label %10, label %13

10:                                               ; preds = %7
  %11 = getelementptr inbounds nuw i8, ptr %6, i64 4
  %12 = load i32, ptr %11, align 4
  %spec.select = tail call i32 @llvm.smax.i32(i32 %12, i32 %.0914)
  br label %13

13:                                               ; preds = %10, %.lr.ph, %7
  %.1 = phi i32 [ %.0914, %7 ], [ %.0914, %.lr.ph ], [ %spec.select, %10 ]
  %14 = tail call ptr @blk_next(ptr noundef nonnull %.015) #14
  %.not = icmp eq ptr %14, null
  br i1 %.not, label %._crit_edge, label %.lr.ph, !llvm.loop !12

._crit_edge:                                      ; preds = %13, %4
  %.09.lcssa = phi i32 [ -1, %4 ], [ %.1, %13 ]
  ret i32 %.09.lcssa
}